target datalayout = "e-m:e-p270:32:32-p271:32:32-p272:64:64-i64:64-i128:128-f80:128-n8:16:32:64-S128"
target triple = "x86_64-pc-linux-gnu"

%"class.igl::opengl::ViewerData" = type { %"class.Eigen::Matrix.3", %"class.Eigen::Matrix.12", %"class.Eigen::Matrix.3", %"class.Eigen::Matrix.3", %"class.Eigen::Matrix.3", %"class.Eigen::Matrix.3", %"class.Eigen::Matrix.3", %"class.Eigen::Matrix.3", %"class.Eigen::Matrix.3", %"class.Eigen::Matrix.3", %"class.Eigen::Matrix.3", %"class.Eigen::Matrix.12", %"class.Eigen::Matrix.21", %"class.Eigen::Matrix.21", %"class.Eigen::Matrix.21", %"class.Eigen::Matrix.21", %"class.Eigen::Matrix.3", %"class.Eigen::Matrix.3", %"class.Eigen::Matrix.3", %"class.Eigen::Matrix.3", %"class.Eigen::Matrix.3", %"class.std::vector", %"class.std::vector", %"class.std::vector", i32, i8, i8, i8, i32, i32, i32, i32, i32, i32, i32, i32, i32, i32, float, float, float, %"class.Eigen::Matrix.30", %"class.Eigen::Matrix.30", float, i32, [4 x i8], %"class.igl::opengl::MeshGL" }
%"class.Eigen::Matrix.12" = type { %"class.Eigen::PlainObjectBase.13" }
%"class.Eigen::PlainObjectBase.13" = type { %"class.Eigen::DenseStorage.20" }
%"class.Eigen::DenseStorage.20" = type { ptr, i64, i64 }
%"class.Eigen::Matrix.21" = type { %"class.Eigen::PlainObjectBase.22" }
%"class.Eigen::PlainObjectBase.22" = type { %"class.Eigen::DenseStorage.29" }
%"class.Eigen::DenseStorage.29" = type { ptr, i64, i64 }
%"class.Eigen::Matrix.3" = type { %"class.Eigen::PlainObjectBase.4" }
%"class.Eigen::PlainObjectBase.4" = type { %"class.Eigen::DenseStorage.11" }
%"class.Eigen::DenseStorage.11" = type { ptr, i64, i64 }
%"class.std::vector" = type { %"struct.std::_Vector_base" }
%"struct.std::_Vector_base" = type { %"struct.std::_Vector_base<std::__cxx11::basic_string<char>, std::allocator<std::__cxx11::basic_string<char>>>::_Vector_impl" }
%"struct.std::_Vector_base<std::__cxx11::basic_string<char>, std::allocator<std::__cxx11::basic_string<char>>>::_Vector_impl" = type { %"struct.std::_Vector_base<std::__cxx11::basic_string<char>, std::allocator<std::__cxx11::basic_string<char>>>::_Vector_impl_data" }
%"struct.std::_Vector_base<std::__cxx11::basic_string<char>, std::allocator<std::__cxx11::basic_string<char>>>::_Vector_impl_data" = type { ptr, ptr, ptr }
%"class.Eigen::Matrix.30" = type { %"class.Eigen::PlainObjectBase.31" }
%"class.Eigen::PlainObjectBase.31" = type { %"class.Eigen::DenseStorage.38" }
%"class.Eigen::DenseStorage.38" = type { %"struct.Eigen::internal::plain_array.39" }
%"struct.Eigen::internal::plain_array.39" = type { [4 x float] }
%"class.igl::opengl::MeshGL" = type <{ i8, [3 x i8], i32, i32, i32, i32, i32, i32, i32, i32, i32, i32, i32, i32, i32, i32, i32, i32, i32, i32, i32, i32, i32, %"class.Eigen::Matrix.40", %"class.Eigen::Matrix.40", %"class.Eigen::Matrix.40", %"class.Eigen::Matrix.40", %"class.Eigen::Matrix.40", %"class.Eigen::Matrix.40", %"class.Eigen::Matrix.40", %"class.Eigen::Matrix.40", %"class.Eigen::Matrix.40", %"class.Eigen::Matrix.40", %"struct.igl::opengl::MeshGL::TextGL", %"struct.igl::opengl::MeshGL::TextGL", %"struct.igl::opengl::MeshGL::TextGL", i32, i32, i32, i32, i32, [4 x i8], %"class.Eigen::Matrix.58", %"class.Eigen::Matrix.49", %"class.Eigen::Matrix.49", %"class.Eigen::Matrix.49", i32, [4 x i8] }>
%"class.Eigen::Matrix.40" = type { %"class.Eigen::PlainObjectBase.41" }
%"class.Eigen::PlainObjectBase.41" = type { %"class.Eigen::DenseStorage.48" }
%"class.Eigen::DenseStorage.48" = type { ptr, i64, i64 }
%"struct.igl::opengl::MeshGL::TextGL" = type { i32, i32, i32, i32, i32, i32, %"class.Eigen::Matrix.40", %"class.Eigen::Matrix.40", %"class.Eigen::Matrix.40", %"class.Eigen::Matrix.49" }
%"class.Eigen::Matrix.58" = type { %"class.Eigen::PlainObjectBase.59" }
%"class.Eigen::PlainObjectBase.59" = type { %"class.Eigen::DenseStorage.66" }
%"class.Eigen::DenseStorage.66" = type { ptr, i64 }
%"class.Eigen::Matrix.49" = type { %"class.Eigen::PlainObjectBase.50" }
%"class.Eigen::PlainObjectBase.50" = type { %"class.Eigen::DenseStorage.57" }
%"class.Eigen::DenseStorage.57" = type { ptr, i64, i64 }

; Function Attrs: mustprogress uwtable
define dso_local void @_ZN3igl6opengl10ViewerData12copy_optionsERKNS0_10ViewerCoreES4_(ptr noundef nonnull align 8 dereferenceable(1488) %0, ptr noundef nonnull align 16 dereferenceable(544) %1, ptr noundef nonnull align 16 dereferenceable(544) %2) #3 align 2 {
  %4 = alloca ptr, align 8
  %5 = alloca ptr, align 8
  %6 = alloca ptr, align 8
  store ptr %0, ptr %4, align 8, !tbaa !21
  store ptr %1, ptr %5, align 8, !tbaa !124
  store ptr %2, ptr %6, align 8, !tbaa !124
  %7 = load ptr, ptr %4, align 8
  %8 = load ptr, ptr %6, align 8, !tbaa !124
  %9 = getelementptr inbounds nuw %"class.igl::opengl::ViewerData", ptr %7, i32 0, i32 33
  %10 = load ptr, ptr %5, align 8, !tbaa !124
  %11 = getelementptr inbounds nuw %"class.igl::opengl::ViewerData", ptr %7, i32 0, i32 33
  %12 = load i32, ptr %11, align 4, !tbaa !68
  %13 = call noundef zeroext i1 @_ZNK3igl6opengl10ViewerCore6is_setEj(ptr noundef nonnull align 16 dereferenceable(544) %10, i32 noundef %12)
  call void @_ZNK3igl6opengl10ViewerCore3setERjb(ptr noundef nonnull align 16 dereferenceable(544) %8, ptr noundef nonnull align 4 dereferenceable(4) %9, i1 noundef zeroext %13)
  %14 = load ptr, ptr %6, align 8, !tbaa !124
  %15 = getelementptr inbounds nuw %"class.igl::opengl::ViewerData", ptr %7, i32 0, i32 34
  %16 = load ptr, ptr %5, align 8, !tbaa !124
  %17 = getelementptr inbounds nuw %"class.igl::opengl::ViewerData", ptr %7, i32 0, i32 34
  %18 = load i32, ptr %17, align 8, !tbaa !69
  %19 = call noundef zeroext i1 @_ZNK3igl6opengl10ViewerCore6is_setEj(ptr noundef nonnull align 16 dereferenceable(544) %16, i32 noundef %18)
  call void @_ZNK3igl6opengl10ViewerCore3setERjb(ptr noundef nonnull align 16 dereferenceable(544) %14, ptr noundef nonnull align 4 dereferenceable(4) %15, i1 noundef zeroext %19)
  %20 = load ptr, ptr %6, align 8, !tbaa !124
  %21 = getelementptr inbounds nuw %"class.igl::opengl::ViewerData", ptr %7, i32 0, i32 35
  %22 = load ptr, ptr %5, align 8, !tbaa !124
  %23 = getelementptr inbounds nuw %"class.igl::opengl::ViewerData", ptr %7, i32 0, i32 35
  %24 = load i32, ptr %23, align 4, !tbaa !70
  %25 = call noundef zeroext i1 @_ZNK3igl6opengl10ViewerCore6is_setEj(ptr noundef nonnull align 16 dereferenceable(544) %22, i32 noundef %24)
  call void @_ZNK3igl6opengl10ViewerCore3setERjb(ptr noundef nonnull align 16 dereferenceable(544) %20, ptr noundef nonnull align 4 dereferenceable(4) %21, i1 noundef zeroext %25)
  %26 = load ptr, ptr %6, align 8, !tbaa !124
  %27 = getelementptr inbounds nuw %"class.igl::opengl::ViewerData", ptr %7, i32 0, i32 37
  %28 = load ptr, ptr %5, align 8, !tbaa !124
  %29 = getelementptr inbounds nuw %"class.igl::opengl::ViewerData", ptr %7, i32 0, i32 37
  %30 = load i32, ptr %29, align 4, !tbaa !72
  %31 = call noundef zeroext i1 @_ZNK3igl6opengl10ViewerCore6is_setEj(ptr noundef nonnull align 16 dereferenceable(544) %28, i32 noundef %30)
  call void @_ZNK3igl6opengl10ViewerCore3setERjb(ptr noundef nonnull align 16 dereferenceable(544) %26, ptr noundef nonnull align 4 dereferenceable(4) %27, i1 noundef zeroext %31)
  %32 = load ptr, ptr %6, align 8, !tbaa !124
  %33 = getelementptr inbounds nuw %"class.igl::opengl::ViewerData", ptr %7, i32 0, i32 31
  %34 = load ptr, ptr %5, align 8, !tbaa !124
  %35 = getelementptr inbounds nuw %"class.igl::opengl::ViewerData", ptr %7, i32 0, i32 31
  %36 = load i32, ptr %35, align 4, !tbaa !66
  %37 = call noundef zeroext i1 @_ZNK3igl6opengl10ViewerCore6is_setEj(ptr noundef nonnull align 16 dereferenceable(544) %34, i32 noundef %36)
  call void @_ZNK3igl6opengl10ViewerCore3setERjb(ptr noundef nonnull align 16 dereferenceable(544) %32, ptr noundef nonnull align 4 dereferenceable(4) %33, i1 noundef zeroext %37)
  %38 = load ptr, ptr %6, align 8, !tbaa !124
  %39 = getelementptr inbounds nuw %"class.igl::opengl::ViewerData", ptr %7, i32 0, i32 32
  %40 = load ptr, ptr %5, align 8, !tbaa !124
  %41 = getelementptr inbounds nuw %"class.igl::opengl::ViewerData", ptr %7, i32 0, i32 32
  %42 = load i32, ptr %41, align 8, !tbaa !67
  %43 = call noundef zeroext i1 @_ZNK3igl6opengl10ViewerCore6is_setEj(ptr noundef nonnull align 16 dereferenceable(544) %40, i32 noundef %42)
  call void @_ZNK3igl6opengl10ViewerCore3setERjb(ptr noundef nonnull align 16 dereferenceable(544) %38, ptr noundef nonnull align 4 dereferenceable(4) %39, i1 noundef zeroext %43)
  ret void
}