; Function Attrs: mustprogress uwtable
define dso_local void @_ZN3igl6opengl10ViewerData12copy_optionsERKNS0_10ViewerCoreES4_(ptr noundef nonnull align 8 dereferenceable(1488) %0, ptr noundef nonnull align 16 dereferenceable(544) %1, ptr noundef nonnull align 16 dereferenceable(544) %2) local_unnamed_addr #1 align 2 {
  %4 = getelementptr inbounds nuw i8, ptr %0, i64 604
  %5 = load i32, ptr %4, align 4, !tbaa !163
  %6 = tail call noundef zeroext i1 @_ZNK3igl6opengl10ViewerCore6is_setEj(ptr noundef nonnull align 16 dereferenceable(544) %1, i32 noundef %5)
  tail call void @_ZNK3igl6opengl10ViewerCore3setERjb(ptr noundef nonnull align 16 dereferenceable(544) %2, ptr noundef nonnull align 4 dereferenceable(4) %4, i1 noundef zeroext %6)
  %7 = getelementptr inbounds nuw i8, ptr %0, i64 608
  %8 = load i32, ptr %7, align 8, !tbaa !164
  %9 = tail call noundef zeroext i1 @_ZNK3igl6opengl10ViewerCore6is_setEj(ptr noundef nonnull align 16 dereferenceable(544) %1, i32 noundef %8)
  tail call void @_ZNK3igl6opengl10ViewerCore3setERjb(ptr noundef nonnull align 16 dereferenceable(544) %2, ptr noundef nonnull align 4 dereferenceable(4) %7, i1 noundef zeroext %9)
  %10 = getelementptr inbounds nuw i8, ptr %0, i64 612
  %11 = load i32, ptr %10, align 4, !tbaa !52
  %12 = tail call noundef zeroext i1 @_ZNK3igl6opengl10ViewerCore6is_setEj(ptr noundef nonnull align 16 dereferenceable(544) %1, i32 noundef %11)
  tail call void @_ZNK3igl6opengl10ViewerCore3setERjb(ptr noundef nonnull align 16 dereferenceable(544) %2, ptr noundef nonnull align 4 dereferenceable(4) %10, i1 noundef zeroext %12)
  %13 = getelementptr inbounds nuw i8, ptr %0, i64 620
  %14 = load i32, ptr %13, align 4, !tbaa !54
  %15 = tail call noundef zeroext i1 @_ZNK3igl6opengl10ViewerCore6is_setEj(ptr noundef nonnull align 16 dereferenceable(544) %1, i32 noundef %14)
  tail call void @_ZNK3igl6opengl10ViewerCore3setERjb(ptr noundef nonnull align 16 dereferenceable(544) %2, ptr noundef nonnull align 4 dereferenceable(4) %13, i1 noundef zeroext %15)
  %16 = getelementptr inbounds nuw i8, ptr %0, i64 596
  %17 = load i32, ptr %16, align 4, !tbaa !165
  %18 = tail call noundef zeroext i1 @_ZNK3igl6opengl10ViewerCore6is_setEj(ptr noundef nonnull align 16 dereferenceable(544) %1, i32 noundef %17)
  tail call void @_ZNK3igl6opengl10ViewerCore3setERjb(ptr noundef nonnull align 16 dereferenceable(544) %2, ptr noundef nonnull align 4 dereferenceable(4) %16, i1 noundef zeroext %18)
  %19 = getelementptr inbounds nuw i8, ptr %0, i64 600
  %20 = load i32, ptr %19, align 8, !tbaa !166
  %21 = tail call noundef zeroext i1 @_ZNK3igl6opengl10ViewerCore6is_setEj(ptr noundef nonnull align 16 dereferenceable(544) %1, i32 noundef %20)
  tail call void @_ZNK3igl6opengl10ViewerCore3setERjb(ptr noundef nonnull align 16 dereferenceable(544) %2, ptr noundef nonnull align 4 dereferenceable(4) %19, i1 noundef zeroext %21)
  ret void
}